target datalayout = "e-m:e-p270:32:32-p271:32:32-p272:64:64-i64:64-i128:128-f80:128-n8:16:32:64-S128"
target triple = "x86_64-pc-linux-gnu"

; Function Attrs: nounwind uwtable
define internal i32 @dissect_fp_heur(ptr noundef %0, ptr noundef %1, ptr noundef %2, ptr noundef %3) #0 {
  %5 = alloca i32, align 4
  %6 = alloca ptr, align 8
  %7 = alloca ptr, align 8
  %8 = alloca ptr, align 8
  %9 = alloca ptr, align 8
  %10 = alloca i16, align 2
  %11 = alloca i32, align 4
  store ptr %0, ptr %6, align 8
  store ptr %1, ptr %7, align 8
  store ptr %2, ptr %8, align 8
  store ptr %3, ptr %9, align 8
  store i16 0, ptr %10, align 2
  store i32 0, ptr %11, align 4
  %12 = load ptr, ptr %6, align 8
  %13 = call i32 @tvb_bytes_exist(ptr noundef %12, i32 noundef 12, i32 noundef 2)
  %14 = icmp ne i32 %13, 0
  br i1 %14, label %16, label %15

15:                                               ; preds = %4
  store i32 0, ptr %5, align 4
  br label %43

16:                                               ; preds = %4
  %17 = load ptr, ptr %6, align 8
  %18 = call zeroext i16 @tvb_get_ntohs(ptr noundef %17, i32 noundef 12)
  store i16 %18, ptr %10, align 2
  %19 = load i16, ptr %10, align 2
  %20 = zext i16 %19 to i32
  switch i32 %20, label %33 [
    i32 35075, label %21
    i32 34984, label %22
    i32 33024, label %22
  ]

21:                                               ; preds = %16
  store i32 16, ptr %11, align 4
  br label %34

22:                                               ; preds = %16, %16
  %23 = load ptr, ptr %6, align 8
  %24 = call i32 @tvb_bytes_exist(ptr noundef %23, i32 noundef 16, i32 noundef 2)
  %25 = icmp ne i32 %24, 0
  br i1 %25, label %26, label %32

26:                                               ; preds = %22
  %27 = load ptr, ptr %6, align 8
  %28 = call zeroext i16 @tvb_get_ntohs(ptr noundef %27, i32 noundef 16)
  %29 = zext i16 %28 to i32
  %30 = icmp eq i32 %29, 35075
  br i1 %30, label %31, label %32

31:                                               ; preds = %26
  store i32 20, ptr %11, align 4
  br label %34

32:                                               ; preds = %26, %22
  br label %33

33:                                               ; preds = %32, %16
  store i32 0, ptr %5, align 4
  br label %43

34:                                               ; preds = %31, %21
  %35 = load ptr, ptr %6, align 8
  %36 = load ptr, ptr %7, align 8
  %37 = load ptr, ptr %8, align 8
  %38 = load i32, ptr %11, align 4
  %39 = call i32 @dissect_fp_common(ptr noundef %35, ptr noundef %36, ptr noundef %37, i32 noundef %38)
  %40 = icmp sgt i32 %39, 0
  br i1 %40, label %41, label %42

41:                                               ; preds = %34
  store i32 1, ptr %5, align 4
  br label %43

42:                                               ; preds = %34
  store i32 0, ptr %5, align 4
  br label %43

43:                                               ; preds = %42, %41, %33, %15
  %44 = load i32, ptr %5, align 4
  ret i32 %44
}