; Function Attrs: nounwind uwtable
define internal range(i32 0, 2) i32 @dissect_fp_heur(ptr noundef %0, ptr noundef %1, ptr noundef %2, ptr readnone captures(none) %3) #0 {
  %5 = tail call i32 @tvb_bytes_exist(ptr noundef %0, i32 noundef 12, i32 noundef 2) #4
  %.not = icmp eq i32 %5, 0
  br i1 %.not, label %15, label %6

6:                                                ; preds = %4
  %7 = tail call zeroext i16 @tvb_get_ntohs(ptr noundef %0, i32 noundef 12) #4
  switch i16 %7, label %15 [
    i16 -30461, label %.split11
    i16 -30552, label %8
    i16 -32512, label %8
  ]

8:                                                ; preds = %6, %6
  %9 = tail call i32 @tvb_bytes_exist(ptr noundef %0, i32 noundef 16, i32 noundef 2) #4
  %.not12 = icmp eq i32 %9, 0
  br i1 %.not12, label %15, label %10

10:                                               ; preds = %8
  %11 = tail call zeroext i16 @tvb_get_ntohs(ptr noundef %0, i32 noundef 16) #4
  %12 = icmp eq i16 %11, -30461
  br i1 %12, label %.split11, label %15

.split11:                                         ; preds = %10, %6
  %.sink = phi i32 [ 16, %6 ], [ 20, %10 ]
  %13 = tail call fastcc i32 @dissect_fp_common(ptr noundef %0, ptr noundef %1, ptr noundef %2, i32 noundef %.sink)
  %14 = icmp sgt i32 %13, 0
  %. = zext i1 %14 to i32
  br label %15

15:                                               ; preds = %.split11, %6, %10, %8, %4
  %.09 = phi i32 [ 0, %4 ], [ 0, %8 ], [ 0, %10 ], [ 0, %6 ], [ %., %.split11 ]
  ret i32 %.09
}